; Function Attrs: nounwind uwtable
define noalias nonnull ptr @l_Lean_Compiler_LCNF_toConfigOptions(ptr noundef %0) local_unnamed_addr #0 {
  %2 = load ptr, ptr @l_Lean_Compiler_LCNF_toConfigOptions___closed__1, align 8, !tbaa !4
  %3 = tail call ptr @l_Lean_Option_get___at_Lean_Compiler_LCNF_toConfigOptions___spec__1(ptr noundef %0, ptr noundef %2)
  %4 = load ptr, ptr @l_Lean_Compiler_LCNF_toConfigOptions___closed__2, align 8, !tbaa !4
  %5 = tail call ptr @l_Lean_Option_get___at_Lean_Compiler_LCNF_toConfigOptions___spec__1(ptr noundef %0, ptr noundef %4)
  %6 = load ptr, ptr @l_Lean_Compiler_LCNF_toConfigOptions___closed__3, align 8, !tbaa !4
  %7 = tail call ptr @l_Lean_Option_get___at_Lean_Compiler_LCNF_toConfigOptions___spec__1(ptr noundef %0, ptr noundef %6)
  %8 = load ptr, ptr @l_Lean_Compiler_LCNF_toConfigOptions___closed__4, align 8, !tbaa !4
  %9 = tail call zeroext i8 @l_Lean_Option_get___at_Lean_Compiler_LCNF_toConfigOptions___spec__2(ptr noundef %0, ptr noundef %8)
  tail call void @lean_inc_heartbeat() #3
  %10 = tail call noalias ptr @mi_malloc_small(i64 noundef 40) #3
  %11 = icmp eq ptr %10, null
  br i1 %11, label %12, label %lean_alloc_ctor.exit

12:                                               ; preds = %1
  tail call void @lean_internal_panic_out_of_memory() #4
  unreachable

lean_alloc_ctor.exit:                             ; preds = %1
  %13 = getelementptr inbounds nuw i8, ptr %10, i64 4
  %14 = getelementptr inbounds nuw i8, ptr %10, i64 32
  store i64 0, ptr %14, align 8, !tbaa !12
  store i32 1, ptr %10, align 4, !tbaa !8
  store i32 196648, ptr %13, align 4
  %15 = getelementptr inbounds nuw i8, ptr %10, i64 8
  store ptr %3, ptr %15, align 8, !tbaa !4
  %16 = getelementptr inbounds nuw i8, ptr %10, i64 16
  store ptr %5, ptr %16, align 8, !tbaa !4
  %17 = getelementptr inbounds nuw i8, ptr %10, i64 24
  store ptr %7, ptr %17, align 8, !tbaa !4
  store i8 %9, ptr %14, align 1, !tbaa !14
  ret ptr %10
}